target datalayout = "e-m:e-p270:32:32-p271:32:32-p272:64:64-i64:64-i128:128-f80:128-n8:16:32:64-S128"
target triple = "x86_64-pc-linux-gnu"

%struct.timeval = type { i64, i64 }

@plugin_type = dso_local constant [9 x i8] c"gpu/nvml\00", align 1
@.str.110 = private unnamed_addr constant [69 x i8] c"%s: %s: nvmlDeviceGetSupportedGraphicsClocks() took %ld microseconds\00", align 1
@__func__._nvml_get_gfx_freqs = private unnamed_addr constant [20 x i8] c"_nvml_get_gfx_freqs\00", align 1
@.str.111 = private unnamed_addr constant [85 x i8] c"%s: Failed to get supported graphics frequencies for the GPU at mem frequency %u: %s\00", align 1
@.str.112 = private unnamed_addr constant [56 x i8] c"%s: gfx frequencies are not stored in descending order!\00", align 1

; Function Attrs: nounwind uwtable
define internal zeroext i1 @_nvml_get_gfx_freqs(ptr noundef %0, i32 noundef %1, ptr noundef %2, ptr noundef %3) #0 {
  %5 = alloca i1, align 1
  %6 = alloca ptr, align 8
  %7 = alloca i32, align 4
  %8 = alloca ptr, align 8
  %9 = alloca ptr, align 8
  %10 = alloca i32, align 4
  %11 = alloca %struct.timeval, align 8
  %12 = alloca %struct.timeval, align 8
  %13 = alloca [20 x i8], align 16
  %14 = alloca i64, align 8
  %15 = alloca ptr, align 8
  %16 = alloca ptr, align 8
  %17 = alloca i32, align 4
  store ptr %0, ptr %6, align 8
  store i32 %1, ptr %7, align 4
  store ptr %2, ptr %8, align 8
  store ptr %3, ptr %9, align 8
  call void @llvm.lifetime.start.p0(i64 4, ptr %10) #7
  call void @llvm.lifetime.start.p0(i64 16, ptr %11) #7
  call void @llvm.lifetime.start.p0(i64 16, ptr %12) #7
  call void @llvm.lifetime.start.p0(i64 20, ptr %13) #7
  call void @llvm.memset.p0.i64(ptr align 16 %13, i8 0, i64 20, i1 false)
  call void @llvm.lifetime.start.p0(i64 8, ptr %14) #7
  %18 = call i32 @gettimeofday(ptr noundef %11, ptr noundef null) #7
  call void @llvm.lifetime.start.p0(i64 8, ptr %15) #7
  %19 = load ptr, ptr %9, align 8
  store ptr %19, ptr %15, align 8
  call void @llvm.lifetime.start.p0(i64 8, ptr %16) #7
  %20 = load ptr, ptr %8, align 8
  store ptr %20, ptr %16, align 8
  %21 = load ptr, ptr %6, align 8
  %22 = load ptr, ptr %21, align 8
  %23 = load i32, ptr %7, align 4
  %24 = load ptr, ptr %16, align 8
  %25 = load ptr, ptr %15, align 8
  %26 = call i32 @nvmlDeviceGetSupportedGraphicsClocks(ptr noundef %22, i32 noundef %23, ptr noundef %24, ptr noundef %25)
  store i32 %26, ptr %10, align 4
  br label %27

27:                                               ; preds = %4
  %28 = call i32 @gettimeofday(ptr noundef %12, ptr noundef null) #7
  %29 = getelementptr inbounds [20 x i8], ptr %13, i64 0, i64 0
  call void @slurm_diff_tv_str(ptr noundef %11, ptr noundef %12, ptr noundef %29, i32 noundef 20, ptr noundef null, i64 noundef 0, ptr noundef %14)
  br label %30

30:                                               ; preds = %27
  br label %31

31:                                               ; preds = %30
  br label %32

32:                                               ; preds = %31
  br label %33

33:                                               ; preds = %32
  %34 = call i32 @slurm_get_log_level()
  %35 = icmp sge i32 %34, 7
  br i1 %35, label %36, label %38

36:                                               ; preds = %33
  %37 = load i64, ptr %14, align 8
  call void (i32, ptr, ...) @slurm_log_var(i32 noundef 7, ptr noundef @.str.110, ptr noundef @plugin_type, ptr noundef @__func__._nvml_get_gfx_freqs, i64 noundef %37)
  br label %38

38:                                               ; preds = %36, %33
  br label %39

39:                                               ; preds = %38
  br label %40

40:                                               ; preds = %39
  br label %41

41:                                               ; preds = %40
  br label %42

42:                                               ; preds = %41
  %43 = load i32, ptr %10, align 4
  %44 = icmp ne i32 %43, 0
  br i1 %44, label %45, label %50

45:                                               ; preds = %42
  %46 = load i32, ptr %7, align 4
  %47 = load i32, ptr %10, align 4
  %48 = call ptr @nvmlErrorString(i32 noundef %47)
  %49 = call i32 (ptr, ...) @slurm_error(ptr noundef @.str.111, ptr noundef @__func__._nvml_get_gfx_freqs, i32 noundef %46, ptr noundef %48)
  store i1 false, ptr %5, align 1
  store i32 1, ptr %17, align 4
  br label %73

50:                                               ; preds = %42
  %51 = load ptr, ptr %9, align 8
  %52 = load ptr, ptr %8, align 8
  %53 = load i32, ptr %52, align 4
  %54 = zext i32 %53 to i64
  call void @qsort(ptr noundef %51, i64 noundef %54, i64 noundef 4, ptr noundef @slurm_sort_uint32_list_desc)
  %55 = load ptr, ptr %8, align 8
  %56 = load i32, ptr %55, align 4
  %57 = icmp ugt i32 %56, 1
  br i1 %57, label %58, label %72

58:                                               ; preds = %50
  %59 = load ptr, ptr %9, align 8
  %60 = getelementptr inbounds i32, ptr %59, i64 0
  %61 = load i32, ptr %60, align 4
  %62 = load ptr, ptr %9, align 8
  %63 = load ptr, ptr %8, align 8
  %64 = load i32, ptr %63, align 4
  %65 = sub i32 %64, 1
  %66 = zext i32 %65 to i64
  %67 = getelementptr inbounds nuw i32, ptr %62, i64 %66
  %68 = load i32, ptr %67, align 4
  %69 = icmp ule i32 %61, %68
  br i1 %69, label %70, label %72

70:                                               ; preds = %58
  %71 = call i32 (ptr, ...) @slurm_error(ptr noundef @.str.112, ptr noundef @__func__._nvml_get_gfx_freqs)
  store i1 false, ptr %5, align 1
  store i32 1, ptr %17, align 4
  br label %73

72:                                               ; preds = %58, %50
  store i1 true, ptr %5, align 1
  store i32 1, ptr %17, align 4
  br label %73

73:                                               ; preds = %72, %70, %45
  call void @llvm.lifetime.end.p0(i64 8, ptr %16) #7
  call void @llvm.lifetime.end.p0(i64 8, ptr %15) #7
  call void @llvm.lifetime.end.p0(i64 8, ptr %14) #7
  call void @llvm.lifetime.end.p0(i64 20, ptr %13) #7
  call void @llvm.lifetime.end.p0(i64 16, ptr %12) #7
  call void @llvm.lifetime.end.p0(i64 16, ptr %11) #7
  call void @llvm.lifetime.end.p0(i64 4, ptr %10) #7
  %74 = load i1, ptr %5, align 1
  ret i1 %74
}