; Function Attrs: nounwind uwtable
define internal fastcc noundef zeroext i1 @_nvml_get_gfx_freqs(ptr noundef nonnull readonly captures(none) %0, i32 noundef %1, ptr noundef nonnull %2, ptr noundef nonnull %3) unnamed_addr #0 {
  %5 = alloca %struct.timeval, align 8
  %6 = alloca %struct.timeval, align 8
  %7 = alloca [20 x i8], align 16
  %8 = alloca i64, align 8
  call void @llvm.lifetime.start.p0(i64 16, ptr nonnull %5) #12
  call void @llvm.lifetime.start.p0(i64 16, ptr nonnull %6) #12
  call void @llvm.lifetime.start.p0(i64 20, ptr nonnull %7) #12
  call void @llvm.memset.p0.i64(ptr noundef nonnull align 16 dereferenceable(20) %7, i8 0, i64 20, i1 false)
  call void @llvm.lifetime.start.p0(i64 8, ptr nonnull %8) #12
  %9 = call i32 @gettimeofday(ptr noundef nonnull %5, ptr noundef null) #12
  %10 = load ptr, ptr %0, align 8
  %11 = tail call i32 @nvmlDeviceGetSupportedGraphicsClocks(ptr noundef %10, i32 noundef %1, ptr noundef nonnull %2, ptr noundef nonnull %3) #12
  %12 = call i32 @gettimeofday(ptr noundef nonnull %6, ptr noundef null) #12
  call void @slurm_diff_tv_str(ptr noundef nonnull %5, ptr noundef nonnull %6, ptr noundef nonnull %7, i32 noundef 20, ptr noundef null, i64 noundef 0, ptr noundef nonnull %8) #12
  %13 = call i32 @slurm_get_log_level() #12
  %14 = icmp sgt i32 %13, 6
  br i1 %14, label %15, label %17

15:                                               ; preds = %4
  %16 = load i64, ptr %8, align 8
  call void (i32, ptr, ...) @slurm_log_var(i32 noundef 7, ptr noundef nonnull @.str.110, ptr noundef nonnull @plugin_type, ptr noundef nonnull @__func__._nvml_get_gfx_freqs, i64 noundef %16) #12
  br label %17

17:                                               ; preds = %15, %4
  %.not = icmp eq i32 %11, 0
  br i1 %.not, label %21, label %18

18:                                               ; preds = %17
  %19 = call ptr @nvmlErrorString(i32 noundef %11) #12
  %20 = call i32 (ptr, ...) @slurm_error(ptr noundef nonnull @.str.111, ptr noundef nonnull @__func__._nvml_get_gfx_freqs, i32 noundef %1, ptr noundef %19) #12
  br label %34

21:                                               ; preds = %17
  %22 = load i32, ptr %2, align 4
  %23 = zext i32 %22 to i64
  call void @qsort(ptr noundef nonnull %3, i64 noundef %23, i64 noundef 4, ptr noundef nonnull @slurm_sort_uint32_list_desc) #12
  %24 = load i32, ptr %2, align 4
  %25 = icmp ugt i32 %24, 1
  br i1 %25, label %26, label %34

26:                                               ; preds = %21
  %27 = load i32, ptr %3, align 4
  %28 = add i32 %24, -1
  %29 = zext i32 %28 to i64
  %30 = getelementptr inbounds nuw i32, ptr %3, i64 %29
  %31 = load i32, ptr %30, align 4
  %.not17 = icmp ugt i32 %27, %31
  br i1 %.not17, label %34, label %32

32:                                               ; preds = %26
  %33 = call i32 (ptr, ...) @slurm_error(ptr noundef nonnull @.str.112, ptr noundef nonnull @__func__._nvml_get_gfx_freqs) #12
  br label %34

34:                                               ; preds = %21, %26, %32, %18
  %.0 = phi i1 [ false, %18 ], [ false, %32 ], [ true, %26 ], [ true, %21 ]
  call void @llvm.lifetime.end.p0(i64 8, ptr nonnull %8) #12
  call void @llvm.lifetime.end.p0(i64 20, ptr nonnull %7) #12
  call void @llvm.lifetime.end.p0(i64 16, ptr nonnull %6) #12
  call void @llvm.lifetime.end.p0(i64 16, ptr nonnull %5) #12
  ret i1 %.0
}